target datalayout = "e-m:e-p270:32:32-p271:32:32-p272:64:64-i64:64-i128:128-f80:128-n8:16:32:64-S128"
target triple = "x86_64-pc-linux-gnu"

%class.btBU_Simplex1to4 = type { %class.btPolyhedralConvexAabbCachingShape.base, i32, [4 x %class.btVector3] }
%class.btPolyhedralConvexAabbCachingShape.base = type <{ %class.btPolyhedralConvexShape, %class.btVector3, %class.btVector3, i8 }>
%class.btPolyhedralConvexShape = type { %class.btConvexInternalShape, ptr }
%class.btConvexInternalShape = type { %class.btConvexShape, %class.btVector3, %class.btVector3, float, float }
%class.btConvexShape = type { %class.btCollisionShape }
%class.btCollisionShape = type { ptr, i32, ptr, i32, i32 }
%class.btVector3 = type { [4 x float] }

; Function Attrs: mustprogress uwtable
define dso_local void @_ZN16btBU_Simplex1to49addVertexERK9btVector3(ptr noundef nonnull align 8 dereferenceable(184) %0, ptr noundef nonnull align 4 dereferenceable(16) %1) #2 align 2 {
  %3 = alloca ptr, align 8
  %4 = alloca ptr, align 8
  store ptr %0, ptr %3, align 8, !tbaa !12
  store ptr %1, ptr %4, align 8, !tbaa !28
  %5 = load ptr, ptr %3, align 8
  %6 = load ptr, ptr %4, align 8, !tbaa !28
  %7 = getelementptr inbounds nuw %class.btBU_Simplex1to4, ptr %5, i32 0, i32 2
  %8 = getelementptr inbounds nuw %class.btBU_Simplex1to4, ptr %5, i32 0, i32 1
  %9 = load i32, ptr %8, align 4, !tbaa !16
  %10 = add nsw i32 %9, 1
  store i32 %10, ptr %8, align 4, !tbaa !16
  %11 = sext i32 %9 to i64
  %12 = getelementptr inbounds [4 x %class.btVector3], ptr %7, i64 0, i64 %11
  call void @llvm.memcpy.p0.p0.i64(ptr align 8 %12, ptr align 4 %6, i64 16, i1 false), !tbaa.struct !30
  call void @_ZN34btPolyhedralConvexAabbCachingShape15recalcLocalAabbEv(ptr noundef nonnull align 8 dereferenceable(113) %5)
  ret void
}

; Function Attrs: inlinehint mustprogress nounwind uwtable
define linkonce_odr dso_local void @_ZN9btVector3C2Ev(ptr noundef nonnull align 4 dereferenceable(16) %0) unnamed_addr #4 comdat align 2 {
  %2 = alloca ptr, align 8
  store ptr %0, ptr %2, align 8, !tbaa !28
  ret void
}

; Function Attrs: mustprogress uwtable
define dso_local void @_ZN16btBU_Simplex1to4C2ERK9btVector3S2_S2_S2_(ptr noundef nonnull align 8 dereferenceable(184) %0, ptr noundef nonnull align 4 dereferenceable(16) %1, ptr noundef nonnull align 4 dereferenceable(16) %2, ptr noundef nonnull align 4 dereferenceable(16) %3, ptr noundef nonnull align 4 dereferenceable(16) %4) unnamed_addr #2 align 2 personality ptr @__gxx_personality_v0 {
  %6 = alloca ptr, align 8
  %7 = alloca ptr, align 8
  %8 = alloca ptr, align 8
  %9 = alloca ptr, align 8
  %10 = alloca ptr, align 8
  %11 = alloca ptr, align 8
  %12 = alloca i32, align 4
  store ptr %0, ptr %6, align 8, !tbaa !12
  store ptr %1, ptr %7, align 8, !tbaa !28
  store ptr %2, ptr %8, align 8, !tbaa !28
  store ptr %3, ptr %9, align 8, !tbaa !28
  store ptr %4, ptr %10, align 8, !tbaa !28
  %13 = load ptr, ptr %6, align 8
  call void @_ZN34btPolyhedralConvexAabbCachingShapeC2Ev(ptr noundef nonnull align 8 dereferenceable(113) %13)
  store ptr getelementptr inbounds inrange(-16, 264) ({ [35 x ptr] }, ptr @_ZTV16btBU_Simplex1to4, i32 0, i32 0, i32 2), ptr %13, align 8, !tbaa !14
  %14 = getelementptr inbounds nuw %class.btBU_Simplex1to4, ptr %13, i32 0, i32 1
  store i32 0, ptr %14, align 4, !tbaa !16
  %15 = getelementptr inbounds nuw %class.btBU_Simplex1to4, ptr %13, i32 0, i32 2
  %16 = getelementptr inbounds [4 x %class.btVector3], ptr %15, i32 0, i32 0
  %17 = getelementptr inbounds %class.btVector3, ptr %16, i64 4
  br label %18

18:                                               ; preds = %20, %5
  %19 = phi ptr [ %16, %5 ], [ %21, %20 ]
  invoke void @_ZN9btVector3C2Ev(ptr noundef nonnull align 4 dereferenceable(16) %19)
          to label %20 unwind label %33

20:                                               ; preds = %18
  %21 = getelementptr inbounds %class.btVector3, ptr %19, i64 1
  %22 = icmp eq ptr %21, %17
  br i1 %22, label %23, label %18

23:                                               ; preds = %20
  %24 = getelementptr inbounds nuw %class.btCollisionShape, ptr %13, i32 0, i32 1
  store i32 2, ptr %24, align 8, !tbaa !27
  %25 = load ptr, ptr %7, align 8, !tbaa !28
  invoke void @_ZN16btBU_Simplex1to49addVertexERK9btVector3(ptr noundef nonnull align 8 dereferenceable(184) %13, ptr noundef nonnull align 4 dereferenceable(16) %25)
          to label %26 unwind label %33

26:                                               ; preds = %23
  %27 = load ptr, ptr %8, align 8, !tbaa !28
  invoke void @_ZN16btBU_Simplex1to49addVertexERK9btVector3(ptr noundef nonnull align 8 dereferenceable(184) %13, ptr noundef nonnull align 4 dereferenceable(16) %27)
          to label %28 unwind label %33

28:                                               ; preds = %26
  %29 = load ptr, ptr %9, align 8, !tbaa !28
  invoke void @_ZN16btBU_Simplex1to49addVertexERK9btVector3(ptr noundef nonnull align 8 dereferenceable(184) %13, ptr noundef nonnull align 4 dereferenceable(16) %29)
          to label %30 unwind label %33

30:                                               ; preds = %28
  %31 = load ptr, ptr %10, align 8, !tbaa !28
  invoke void @_ZN16btBU_Simplex1to49addVertexERK9btVector3(ptr noundef nonnull align 8 dereferenceable(184) %13, ptr noundef nonnull align 4 dereferenceable(16) %31)
          to label %32 unwind label %33

32:                                               ; preds = %30
  ret void

33:                                               ; preds = %30, %28, %26, %23, %18
  %34 = landingpad { ptr, i32 }
          cleanup
  %35 = extractvalue { ptr, i32 } %34, 0
  store ptr %35, ptr %11, align 8
  %36 = extractvalue { ptr, i32 } %34, 1
  store i32 %36, ptr %12, align 4
  call void @_ZN23btPolyhedralConvexShapeD2Ev(ptr noundef nonnull align 8 dereferenceable(113) %13) #10
  br label %37

37:                                               ; preds = %33
  %38 = load ptr, ptr %11, align 8
  %39 = load i32, ptr %12, align 4
  %40 = insertvalue { ptr, i32 } poison, ptr %38, 0
  %41 = insertvalue { ptr, i32 } %40, i32 %39, 1
  resume { ptr, i32 } %41
}