; Function Attrs: mustprogress uwtable
define dso_local void @_ZN16btBU_Simplex1to4C2ERK9btVector3S2_S2_S2_(ptr noundef nonnull align 8 dereferenceable(184) %0, ptr noundef nonnull readonly align 4 captures(none) dereferenceable(16) %1, ptr noundef nonnull readonly align 4 captures(none) dereferenceable(16) %2, ptr noundef nonnull readonly align 4 captures(none) dereferenceable(16) %3, ptr noundef nonnull readonly align 4 captures(none) dereferenceable(16) %4) unnamed_addr #0 align 2 personality ptr @__gxx_personality_v0 {
  tail call void @_ZN34btPolyhedralConvexAabbCachingShapeC2Ev(ptr noundef nonnull align 8 dereferenceable(113) %0)
  store ptr getelementptr inbounds nuw inrange(-16, 264) (i8, ptr @_ZTV16btBU_Simplex1to4, i64 16), ptr %0, align 8, !tbaa !4
  %6 = getelementptr inbounds nuw i8, ptr %0, i64 116
  %7 = getelementptr inbounds nuw i8, ptr %0, i64 8
  store i32 2, ptr %7, align 8, !tbaa !21
  %8 = getelementptr inbounds nuw i8, ptr %0, i64 120
  store i32 1, ptr %6, align 4, !tbaa !7
  tail call void @llvm.memcpy.p0.p0.i64(ptr noundef nonnull align 8 dereferenceable(16) %8, ptr noundef nonnull readonly align 4 dereferenceable(16) %1, i64 16, i1 false), !tbaa.struct !22
  invoke void @_ZN34btPolyhedralConvexAabbCachingShape15recalcLocalAabbEv(ptr noundef nonnull align 8 dereferenceable(184) %0)
          to label %_ZN16btBU_Simplex1to49addVertexERK9btVector3.exit unwind label %21

_ZN16btBU_Simplex1to49addVertexERK9btVector3.exit: ; preds = %5
  %9 = load i32, ptr %6, align 4, !tbaa !7
  %10 = add nsw i32 %9, 1
  store i32 %10, ptr %6, align 4, !tbaa !7
  %11 = sext i32 %9 to i64
  %12 = getelementptr inbounds [4 x %class.btVector3], ptr %8, i64 0, i64 %11
  tail call void @llvm.memcpy.p0.p0.i64(ptr noundef nonnull align 8 dereferenceable(16) %12, ptr noundef nonnull readonly align 4 dereferenceable(16) %2, i64 16, i1 false), !tbaa.struct !22
  invoke void @_ZN34btPolyhedralConvexAabbCachingShape15recalcLocalAabbEv(ptr noundef nonnull align 8 dereferenceable(184) %0)
          to label %_ZN16btBU_Simplex1to49addVertexERK9btVector3.exit8 unwind label %21

_ZN16btBU_Simplex1to49addVertexERK9btVector3.exit8: ; preds = %_ZN16btBU_Simplex1to49addVertexERK9btVector3.exit
  %13 = load i32, ptr %6, align 4, !tbaa !7
  %14 = add nsw i32 %13, 1
  store i32 %14, ptr %6, align 4, !tbaa !7
  %15 = sext i32 %13 to i64
  %16 = getelementptr inbounds [4 x %class.btVector3], ptr %8, i64 0, i64 %15
  tail call void @llvm.memcpy.p0.p0.i64(ptr noundef nonnull align 8 dereferenceable(16) %16, ptr noundef nonnull readonly align 4 dereferenceable(16) %3, i64 16, i1 false), !tbaa.struct !22
  invoke void @_ZN34btPolyhedralConvexAabbCachingShape15recalcLocalAabbEv(ptr noundef nonnull align 8 dereferenceable(184) %0)
          to label %_ZN16btBU_Simplex1to49addVertexERK9btVector3.exit9 unwind label %21

_ZN16btBU_Simplex1to49addVertexERK9btVector3.exit9: ; preds = %_ZN16btBU_Simplex1to49addVertexERK9btVector3.exit8
  %17 = load i32, ptr %6, align 4, !tbaa !7
  %18 = add nsw i32 %17, 1
  store i32 %18, ptr %6, align 4, !tbaa !7
  %19 = sext i32 %17 to i64
  %20 = getelementptr inbounds [4 x %class.btVector3], ptr %8, i64 0, i64 %19
  tail call void @llvm.memcpy.p0.p0.i64(ptr noundef nonnull align 8 dereferenceable(16) %20, ptr noundef nonnull readonly align 4 dereferenceable(16) %4, i64 16, i1 false), !tbaa.struct !22
  invoke void @_ZN34btPolyhedralConvexAabbCachingShape15recalcLocalAabbEv(ptr noundef nonnull align 8 dereferenceable(184) %0)
          to label %_ZN16btBU_Simplex1to49addVertexERK9btVector3.exit10 unwind label %21

_ZN16btBU_Simplex1to49addVertexERK9btVector3.exit10: ; preds = %_ZN16btBU_Simplex1to49addVertexERK9btVector3.exit9
  ret void

21:                                               ; preds = %_ZN16btBU_Simplex1to49addVertexERK9btVector3.exit9, %_ZN16btBU_Simplex1to49addVertexERK9btVector3.exit8, %_ZN16btBU_Simplex1to49addVertexERK9btVector3.exit, %5
  %22 = landingpad { ptr, i32 }
          cleanup
  tail call void @_ZN23btPolyhedralConvexShapeD2Ev(ptr noundef nonnull align 8 dereferenceable(113) %0) #12
  resume { ptr, i32 } %22
}